TN:ml_gtest
SF:/home/andy/trunk/data_structure/gtest/main.cpp
FN:4,main
FN:9,_Z41__static_initialization_and_destruction_0ii
FN:9,_GLOBAL__sub_I_main
FNDA:1,main
FNDA:1,_GLOBAL__sub_I_main
FNDA:1,_Z41__static_initialization_and_destruction_0ii
FNF:3
FNH:3
DA:4,1
DA:6,1
DA:7,1
DA:8,1
DA:9,3
LF:5
LH:5
end_of_record
SF:/opt/ide/include/gtest/gtest.h
FN:2452,_Z13RUN_ALL_TESTSv
FNDA:1,_Z13RUN_ALL_TESTSv
FNF:1
FNH:1
DA:2452,1
DA:2453,1
LF:2
LH:2
end_of_record
SF:/opt/ide/include/gtest/internal/gtest-param-util.h
FN:91,_ZN7testing8internal22ParamIteratorInterfaceIbEC2Ev
FN:93,_ZN7testing8internal22ParamIteratorInterfaceIbED2Ev
FN:93,_ZN7testing8internal22ParamIteratorInterfaceIbED0Ev
FN:168,_ZN7testing8internal23ParamGeneratorInterfaceIbED0Ev
FN:168,_ZN7testing8internal23ParamGeneratorInterfaceIbED2Ev
FN:295,_ZN7testing8internal30ValuesInIteratorRangeGeneratorIbED0Ev
FN:295,_ZN7testing8internal30ValuesInIteratorRangeGeneratorIbED2Ev
FN:297,_ZNK7testing8internal30ValuesInIteratorRangeGeneratorIbE5BeginEv
FN:300,_ZNK7testing8internal30ValuesInIteratorRangeGeneratorIbE3EndEv
FN:309,_ZN7testing8internal30ValuesInIteratorRangeGeneratorIbE8IteratorC2EPKNS0_23ParamGeneratorInterfaceIbEESt19_Bit_const_iterator
FN:312,_ZN7testing8internal30ValuesInIteratorRangeGeneratorIbE8IteratorD0Ev
FN:312,_ZN7testing8internal30ValuesInIteratorRangeGeneratorIbE8IteratorD2Ev
FN:314,_ZNK7testing8internal30ValuesInIteratorRangeGeneratorIbE8Iterator13BaseGeneratorEv
FN:317,_ZN7testing8internal30ValuesInIteratorRangeGeneratorIbE8Iterator7AdvanceEv
FN:321,_ZNK7testing8internal30ValuesInIteratorRangeGeneratorIbE8Iterator5CloneEv
FN:331,_ZNK7testing8internal30ValuesInIteratorRangeGeneratorIbE8Iterator7CurrentEv
FN:335,_ZNK7testing8internal30ValuesInIteratorRangeGeneratorIbE8Iterator6EqualsERKNS0_22ParamIteratorInterfaceIbEE
FN:346,_ZN7testing8internal30ValuesInIteratorRangeGeneratorIbE8IteratorC2ERKS3_
FNDA:0,_ZN7testing8internal22ParamIteratorInterfaceIbEC2Ev
FNDA:0,_ZN7testing8internal22ParamIteratorInterfaceIbED0Ev
FNDA:0,_ZN7testing8internal22ParamIteratorInterfaceIbED2Ev
FNDA:0,_ZN7testing8internal23ParamGeneratorInterfaceIbED0Ev
FNDA:0,_ZN7testing8internal23ParamGeneratorInterfaceIbED2Ev
FNDA:0,_ZN7testing8internal30ValuesInIteratorRangeGeneratorIbED0Ev
FNDA:0,_ZN7testing8internal30ValuesInIteratorRangeGeneratorIbED2Ev
FNDA:0,_ZNK7testing8internal30ValuesInIteratorRangeGeneratorIbE5BeginEv
FNDA:0,_ZNK7testing8internal30ValuesInIteratorRangeGeneratorIbE3EndEv
FNDA:0,_ZN7testing8internal30ValuesInIteratorRangeGeneratorIbE8IteratorC2EPKNS0_23ParamGeneratorInterfaceIbEESt19_Bit_const_iterator
FNDA:0,_ZN7testing8internal30ValuesInIteratorRangeGeneratorIbE8IteratorD0Ev
FNDA:0,_ZN7testing8internal30ValuesInIteratorRangeGeneratorIbE8IteratorD2Ev
FNDA:0,_ZNK7testing8internal30ValuesInIteratorRangeGeneratorIbE8Iterator13BaseGeneratorEv
FNDA:0,_ZN7testing8internal30ValuesInIteratorRangeGeneratorIbE8Iterator7AdvanceEv
FNDA:0,_ZNK7testing8internal30ValuesInIteratorRangeGeneratorIbE8Iterator5CloneEv
FNDA:0,_ZNK7testing8internal30ValuesInIteratorRangeGeneratorIbE8Iterator7CurrentEv
FNDA:0,_ZNK7testing8internal30ValuesInIteratorRangeGeneratorIbE8Iterator6EqualsERKNS0_22ParamIteratorInterfaceIbEE
FNDA:0,_ZN7testing8internal30ValuesInIteratorRangeGeneratorIbE8IteratorC2ERKS3_
FNF:18
FNH:0
DA:91,0
DA:93,0
DA:168,0
DA:295,0
DA:297,0
DA:298,0
DA:300,0
DA:301,0
DA:309,0
DA:311,0
DA:312,0
DA:314,0
DA:315,0
DA:317,0
DA:318,0
DA:319,0
DA:320,0
DA:321,0
DA:322,0
DA:331,0
DA:332,0
DA:333,0
DA:335,0
DA:338,0
DA:339,0
DA:340,0
DA:341,0
DA:342,0
DA:346,0
DA:351,0
LF:30
LH:0
end_of_record
SF:/opt/ide/include/gtest/internal/gtest-port.h
FN:980,_ZN7testing8internal8GTestLog9GetStreamEv
FN:1135,_ZN7testing8internal27CheckedDowncastToActualTypeIKNS0_30ValuesInIteratorRangeGeneratorIbE8IteratorEKNS0_22ParamIteratorInterfaceIbEEEEPT_PT0_
FNDA:0,_ZN7testing8internal8GTestLog9GetStreamEv
FNDA:0,_ZN7testing8internal27CheckedDowncastToActualTypeIKNS0_30ValuesInIteratorRangeGeneratorIbE8IteratorEKNS0_22ParamIteratorInterfaceIbEEEEPT_PT0_
FNF:2
FNH:0
DA:980,0
DA:1135,0
DA:1137,0
DA:1143,0
LF:4
LH:0
end_of_record
SF:/usr/include/c++/4.8.2/bits/allocator.h
FN:121,_ZNSaImED2Ev
FNDA:0,_ZNSaImED2Ev
FNF:1
FNH:0
DA:121,0
LF:1
LH:0
end_of_record
SF:/usr/include/c++/4.8.2/bits/basic_ios.h
FN:46,_ZSt13__check_facetISt5ctypeIcEERKT_PS3_
FNDA:0,_ZSt13__check_facetISt5ctypeIcEERKT_PS3_
FNF:1
FNH:0
DA:46,0
DA:48,0
DA:49,0
DA:50,0
LF:4
LH:0
end_of_record
SF:/usr/include/c++/4.8.2/bits/char_traits.h
FN:258,_ZNSt11char_traitsIcE6lengthEPKc
FNDA:0,_ZNSt11char_traitsIcE6lengthEPKc
FNF:1
FNH:0
DA:258,0
DA:259,0
LF:2
LH:0
end_of_record
SF:/usr/include/c++/4.8.2/bits/ios_base.h
FN:157,_ZStorSt12_Ios_IostateS_
FNDA:0,_ZStorSt12_Ios_IostateS_
FNF:1
FNH:0
DA:157,0
DA:158,0
LF:2
LH:0
end_of_record
SF:/usr/include/c++/4.8.2/bits/locale_facets.h
FN:865,_ZNKSt5ctypeIcE5widenEc
FNDA:0,_ZNKSt5ctypeIcE5widenEc
FNF:1
FNH:0
DA:865,0
DA:867,0
DA:868,0
DA:869,0
DA:870,0
LF:5
LH:0
end_of_record
SF:/usr/include/c++/4.8.2/bits/move.h
FN:101,_ZSt4moveIRPKbEONSt16remove_referenceIT_E4typeEOS4_
FN:166,_ZSt4swapIPKbEvRT_S3_
FNDA:0,_ZSt4moveIRPKbEONSt16remove_referenceIT_E4typeEOS4_
FNDA:0,_ZSt4swapIPKbEvRT_S3_
FNF:2
FNH:0
DA:101,0
DA:102,0
DA:166,0
DA:175,0
DA:176,0
DA:177,0
DA:178,0
LF:7
LH:0
end_of_record
SF:/usr/include/c++/4.8.2/bits/shared_ptr_base.h
FN:113,_ZNSt16_Sp_counted_baseILN9__gnu_cxx12_Lock_policyE2EED0Ev
FN:113,_ZNSt16_Sp_counted_baseILN9__gnu_cxx12_Lock_policyE2EED2Ev
FN:123,_ZNSt16_Sp_counted_baseILN9__gnu_cxx12_Lock_policyE2EE10_M_destroyEv
FN:281,_ZNSt15_Sp_counted_ptrIPN7testing8internal23ParamGeneratorInterfaceIbEELN9__gnu_cxx12_Lock_policyE2EED0Ev
FN:281,_ZNSt15_Sp_counted_ptrIPN7testing8internal23ParamGeneratorInterfaceIbEELN9__gnu_cxx12_Lock_policyE2EED2Ev
FN:289,_ZNSt15_Sp_counted_ptrIPN7testing8internal23ParamGeneratorInterfaceIbEELN9__gnu_cxx12_Lock_policyE2EE10_M_disposeEv
FN:293,_ZNSt15_Sp_counted_ptrIPN7testing8internal23ParamGeneratorInterfaceIbEELN9__gnu_cxx12_Lock_policyE2EE10_M_destroyEv
FN:297,_ZNSt15_Sp_counted_ptrIPN7testing8internal23ParamGeneratorInterfaceIbEELN9__gnu_cxx12_Lock_policyE2EE14_M_get_deleterERKSt9type_info
FNDA:0,_ZNSt16_Sp_counted_baseILN9__gnu_cxx12_Lock_policyE2EED0Ev
FNDA:0,_ZNSt16_Sp_counted_baseILN9__gnu_cxx12_Lock_policyE2EED2Ev
FNDA:0,_ZNSt16_Sp_counted_baseILN9__gnu_cxx12_Lock_policyE2EE10_M_destroyEv
FNDA:0,_ZNSt15_Sp_counted_ptrIPN7testing8internal23ParamGeneratorInterfaceIbEELN9__gnu_cxx12_Lock_policyE2EED0Ev
FNDA:0,_ZNSt15_Sp_counted_ptrIPN7testing8internal23ParamGeneratorInterfaceIbEELN9__gnu_cxx12_Lock_policyE2EED2Ev
FNDA:0,_ZNSt15_Sp_counted_ptrIPN7testing8internal23ParamGeneratorInterfaceIbEELN9__gnu_cxx12_Lock_policyE2EE10_M_disposeEv
FNDA:0,_ZNSt15_Sp_counted_ptrIPN7testing8internal23ParamGeneratorInterfaceIbEELN9__gnu_cxx12_Lock_policyE2EE10_M_destroyEv
FNDA:0,_ZNSt15_Sp_counted_ptrIPN7testing8internal23ParamGeneratorInterfaceIbEELN9__gnu_cxx12_Lock_policyE2EE14_M_get_deleterERKSt9type_info
FNF:8
FNH:0
DA:113,0
DA:114,0
DA:123,0
DA:124,0
DA:281,0
DA:289,0
DA:290,0
DA:293,0
DA:294,0
DA:297,0
DA:298,0
LF:11
LH:0
end_of_record
SF:/usr/include/c++/4.8.2/bits/stl_bvector.h
FN:75,_ZNSt14_Bit_referenceC2EPmm
FN:80,_ZNKSt14_Bit_referencecvbEv
FN:142,_ZNSt18_Bit_iterator_baseC2EPmj
FN:146,_ZNSt18_Bit_iterator_base10_M_bump_upEv
FN:180,_ZNKSt18_Bit_iterator_baseeqERKS_
FN:308,_ZNSt19_Bit_const_iteratorC2ERKSt13_Bit_iterator
FN:312,_ZNKSt19_Bit_const_iteratordeEv
FN:316,_ZNSt19_Bit_const_iteratorppEv
FN:408,_ZNSt13_Bvector_baseISaIbEE13_Bvector_implD2Ev
FN:465,_ZNSt13_Bvector_baseISaIbEED2Ev
FN:476,_ZNSt13_Bvector_baseISaIbEE13_M_deallocateEv
FN:621,_ZNSt6vectorIbSaIbEED2Ev
FN:692,_ZNKSt6vectorIbSaIbEE5beginEv
FN:700,_ZNKSt6vectorIbSaIbEE3endEv
FNDA:0,_ZNSt14_Bit_referenceC2EPmm
FNDA:0,_ZNKSt14_Bit_referencecvbEv
FNDA:0,_ZNSt18_Bit_iterator_baseC2EPmj
FNDA:0,_ZNSt18_Bit_iterator_base10_M_bump_upEv
FNDA:0,_ZNKSt18_Bit_iterator_baseeqERKS_
FNDA:0,_ZNSt19_Bit_const_iteratorC2ERKSt13_Bit_iterator
FNDA:0,_ZNKSt19_Bit_const_iteratordeEv
FNDA:0,_ZNSt19_Bit_const_iteratorppEv
FNDA:0,_ZNSt13_Bvector_baseISaIbEE13_Bvector_implD2Ev
FNDA:0,_ZNSt13_Bvector_baseISaIbEED2Ev
FNDA:0,_ZNSt13_Bvector_baseISaIbEE13_M_deallocateEv
FNDA:0,_ZNSt6vectorIbSaIbEED2Ev
FNDA:0,_ZNKSt6vectorIbSaIbEE5beginEv
FNDA:0,_ZNKSt6vectorIbSaIbEE3endEv
FNF:14
FNH:0
DA:75,0
DA:76,0
DA:80,0
DA:81,0
DA:142,0
DA:143,0
DA:146,0
DA:148,0
DA:150,0
DA:151,0
DA:153,0
DA:180,0
DA:181,0
DA:308,0
DA:309,0
DA:312,0
DA:313,0
DA:316,0
DA:318,0
DA:319,0
DA:408,0
DA:465,0
DA:466,0
DA:476,0
DA:478,0
DA:479,0
DA:481,0
DA:621,0
DA:692,0
DA:693,0
DA:700,0
DA:701,0
LF:32
LH:0
end_of_record
SF:/usr/include/c++/4.8.2/bits/stl_iterator_base_types.h
FN:118,_ZNSt8iteratorISt26random_access_iterator_tagblPbRbEC2Ev
FNDA:0,_ZNSt8iteratorISt26random_access_iterator_tagblPbRbEC2Ev
FNF:1
FNH:0
DA:118,0
LF:1
LH:0
end_of_record
SF:/usr/include/c++/4.8.2/bits/unique_ptr.h
FN:63,_ZNKSt14default_deleteIKbEclEPS0_
FN:180,_ZNSt10unique_ptrIKbSt14default_deleteIS0_EED2Ev
FN:233,_ZNKSt10unique_ptrIKbSt14default_deleteIS0_EE3getEv
FN:237,_ZNSt10unique_ptrIKbSt14default_deleteIS0_EE11get_deleterEv
FN:257,_ZNSt10unique_ptrIKbSt14default_deleteIS0_EE5resetEPS0_
FNDA:0,_ZNKSt14default_deleteIKbEclEPS0_
FNDA:0,_ZNSt10unique_ptrIKbSt14default_deleteIS0_EED2Ev
FNDA:0,_ZNKSt10unique_ptrIKbSt14default_deleteIS0_EE3getEv
FNDA:0,_ZNSt10unique_ptrIKbSt14default_deleteIS0_EE11get_deleterEv
FNDA:0,_ZNSt10unique_ptrIKbSt14default_deleteIS0_EE5resetEPS0_
FNF:5
FNH:0
DA:63,0
DA:67,0
DA:68,0
DA:180,0
DA:182,0
DA:183,0
DA:184,0
DA:185,0
DA:186,0
DA:233,0
DA:234,0
DA:237,0
DA:238,0
DA:257,0
DA:260,0
DA:261,0
DA:262,0
DA:263,0
LF:18
LH:0
end_of_record
SF:/usr/include/c++/4.8.2/ext/new_allocator.h
FN:86,_ZN9__gnu_cxx13new_allocatorImED2Ev
FN:109,_ZN9__gnu_cxx13new_allocatorImE10deallocateEPmm
FNDA:0,_ZN9__gnu_cxx13new_allocatorImED2Ev
FNDA:0,_ZN9__gnu_cxx13new_allocatorImE10deallocateEPmm
FNF:2
FNH:0
DA:86,0
DA:109,0
DA:110,0
LF:3
LH:0
end_of_record
SF:/usr/include/c++/4.8.2/iostream
DA:74,1
LF:1
LH:1
end_of_record
SF:/usr/include/c++/4.8.2/tuple
FN:122,_ZNSt10_Head_baseILm1ESt14default_deleteIKbELb1EE7_M_headERS3_
FN:169,_ZNSt10_Head_baseILm0EPKbLb0EE7_M_headERS2_
FN:172,_ZNSt10_Head_baseILm0EPKbLb0EE7_M_headERKS2_
FN:241,_ZNSt11_Tuple_implILm1EISt14default_deleteIKbEEE7_M_headERS3_
FN:241,_ZNSt11_Tuple_implILm0EIPKbSt14default_deleteIS0_EEE7_M_headERS4_
FN:244,_ZNSt11_Tuple_implILm0EIPKbSt14default_deleteIS0_EEE7_M_headERKS4_
FN:744,_ZSt12__get_helperILm0EPKbISt14default_deleteIS0_EEENSt9__add_refIT0_E4typeERSt11_Tuple_implIXT_EIS5_DpT1_EE
FN:744,_ZSt12__get_helperILm1ESt14default_deleteIKbEIEENSt9__add_refIT0_E4typeERSt11_Tuple_implIXT_EIS4_DpT1_EE
FN:749,_ZSt12__get_helperILm0EPKbISt14default_deleteIS0_EEENSt11__add_c_refIT0_E4typeERKSt11_Tuple_implIXT_EIS5_DpT1_EE
FN:759,_ZSt3getILm0EIPKbSt14default_deleteIS0_EEENSt9__add_refINSt13tuple_elementIXT_ESt5tupleIIDpT0_EEE4typeEE4typeERS9_
FN:759,_ZSt3getILm1EIPKbSt14default_deleteIS0_EEENSt9__add_refINSt13tuple_elementIXT_ESt5tupleIIDpT0_EEE4typeEE4typeERS9_
FN:766,_ZSt3getILm0EIPKbSt14default_deleteIS0_EEENSt11__add_c_refINSt13tuple_elementIXT_ESt5tupleIIDpT0_EEE4typeEE4typeERKS9_
FNDA:0,_ZNSt10_Head_baseILm1ESt14default_deleteIKbELb1EE7_M_headERS3_
FNDA:0,_ZNSt10_Head_baseILm0EPKbLb0EE7_M_headERS2_
FNDA:0,_ZNSt10_Head_baseILm0EPKbLb0EE7_M_headERKS2_
FNDA:0,_ZNSt11_Tuple_implILm1EISt14default_deleteIKbEEE7_M_headERS3_
FNDA:0,_ZNSt11_Tuple_implILm0EIPKbSt14default_deleteIS0_EEE7_M_headERS4_
FNDA:0,_ZNSt11_Tuple_implILm0EIPKbSt14default_deleteIS0_EEE7_M_headERKS4_
FNDA:0,_ZSt12__get_helperILm1ESt14default_deleteIKbEIEENSt9__add_refIT0_E4typeERSt11_Tuple_implIXT_EIS4_DpT1_EE
FNDA:0,_ZSt12__get_helperILm0EPKbISt14default_deleteIS0_EEENSt9__add_refIT0_E4typeERSt11_Tuple_implIXT_EIS5_DpT1_EE
FNDA:0,_ZSt12__get_helperILm0EPKbISt14default_deleteIS0_EEENSt11__add_c_refIT0_E4typeERKSt11_Tuple_implIXT_EIS5_DpT1_EE
FNDA:0,_ZSt3getILm1EIPKbSt14default_deleteIS0_EEENSt9__add_refINSt13tuple_elementIXT_ESt5tupleIIDpT0_EEE4typeEE4typeERS9_
FNDA:0,_ZSt3getILm0EIPKbSt14default_deleteIS0_EEENSt9__add_refINSt13tuple_elementIXT_ESt5tupleIIDpT0_EEE4typeEE4typeERS9_
FNDA:0,_ZSt3getILm0EIPKbSt14default_deleteIS0_EEENSt11__add_c_refINSt13tuple_elementIXT_ESt5tupleIIDpT0_EEE4typeEE4typeERKS9_
FNF:12
FNH:0
DA:122,0
DA:169,0
DA:172,0
DA:241,0
DA:244,0
DA:744,0
DA:745,0
DA:749,0
DA:750,0
DA:759,0
DA:760,0
DA:766,0
DA:767,0
LF:13
LH:0
end_of_record
SF:/usr/include/c++/4.8.2/typeinfo
FN:120,_ZNKSt9type_infoeqERKS_
FNDA:0,_ZNKSt9type_infoeqERKS_
FNF:1
FNH:0
DA:120,0
DA:122,0
DA:123,0
DA:124,0
LF:4
LH:0
end_of_record
TN:ml_gtest
SF:/home/andy/trunk/data_structure/gtest/GtestBinaryTree.cpp
FN:6,_ZN12_GLOBAL__N_114TestBinaryTreeC2Ev
FN:6,_ZN12_GLOBAL__N_114TestBinaryTreeD2Ev
FN:6,_ZN12_GLOBAL__N_114TestBinaryTreeD0Ev
FN:8,_ZN12_GLOBAL__N_114TestBinaryTree5SetUpEv
FN:11,_ZN12_GLOBAL__N_114TestBinaryTree8TearDownEv
FN:19,_ZN8TreeNodeC2Ev
FN:22,_ZN8TreeNodeD2Ev
FN:29,_ZN36TestBinaryTree_TEST_BINARY_TREE_TestD2Ev
FN:29,_ZN36TestBinaryTree_TEST_BINARY_TREE_TestC2Ev
FN:29,_ZN36TestBinaryTree_TEST_BINARY_TREE_Test8TestBodyEv
FN:29,_ZN36TestBinaryTree_TEST_BINARY_TREE_TestD0Ev
FN:72,_Z41__static_initialization_and_destruction_0ii
FN:72,_GLOBAL__sub_I__ZN36TestBinaryTree_TEST_BINARY_TREE_Test10test_info_E
FNDA:0,_ZN12_GLOBAL__N_114TestBinaryTreeD0Ev
FNDA:1,_ZN12_GLOBAL__N_114TestBinaryTreeD2Ev
FNDA:1,_ZN12_GLOBAL__N_114TestBinaryTreeC2Ev
FNDA:1,_ZN12_GLOBAL__N_114TestBinaryTree5SetUpEv
FNDA:1,_ZN12_GLOBAL__N_114TestBinaryTree8TearDownEv
FNDA:5,_ZN8TreeNodeC2Ev
FNDA:1,_ZN8TreeNodeD2Ev
FNDA:1,_ZN36TestBinaryTree_TEST_BINARY_TREE_TestD0Ev
FNDA:1,_ZN36TestBinaryTree_TEST_BINARY_TREE_TestD2Ev
FNDA:1,_ZN36TestBinaryTree_TEST_BINARY_TREE_Test8TestBodyEv
FNDA:1,_ZN36TestBinaryTree_TEST_BINARY_TREE_TestC2Ev
FNDA:1,_GLOBAL__sub_I__ZN36TestBinaryTree_TEST_BINARY_TREE_Test10test_info_E
FNDA:1,_Z41__static_initialization_and_destruction_0ii
FNF:13
FNH:12
DA:6,2
DA:8,1
DA:9,1
DA:11,1
DA:12,1
DA:19,5
DA:20,5
DA:22,1
DA:23,1
DA:29,5
DA:32,1
DA:33,1
DA:34,1
DA:37,1
DA:38,1
DA:39,1
DA:40,1
DA:41,1
DA:42,1
DA:43,1
DA:46,1
DA:47,1
DA:48,1
DA:49,1
DA:50,1
DA:51,1
DA:52,1
DA:55,1
DA:56,1
DA:57,1
DA:58,1
DA:61,1
DA:62,1
DA:63,1
DA:64,1
DA:67,1
DA:69,1
DA:71,1
DA:72,3
LF:39
LH:39
end_of_record
SF:/home/andy/trunk/data_structure/tree/tcc/BinaryTree.tcc
FN:8,_ZN10BinaryTreeI8TreeNodeEC2Ev
FN:14,_ZN10BinaryTreeI8TreeNodeED2Ev
FN:20,_ZN10BinaryTreeI8TreeNodeE14InsertLeftNodeEPS1_
FN:34,_ZN10BinaryTreeI8TreeNodeE14InsertLeftNodeEPS1_S2_
FN:49,_ZN10BinaryTreeI8TreeNodeE15InsertRightNodeEPS1_
FN:63,_ZN10BinaryTreeI8TreeNodeE15InsertRightNodeEPS1_S2_
FN:90,_ZN10BinaryTreeI8TreeNodeE14PreOrderTraverEPS1_
FN:106,_ZN10BinaryTreeI8TreeNodeE13InOrderTraverEPS1_
FN:122,_ZN10BinaryTreeI8TreeNodeE13OnOrderTraverEPS1_
FNDA:5,_ZN10BinaryTreeI8TreeNodeEC2Ev
FNDA:1,_ZN10BinaryTreeI8TreeNodeED2Ev
FNDA:1,_ZN10BinaryTreeI8TreeNodeE14InsertLeftNodeEPS1_
FNDA:1,_ZN10BinaryTreeI8TreeNodeE14InsertLeftNodeEPS1_S2_
FNDA:1,_ZN10BinaryTreeI8TreeNodeE15InsertRightNodeEPS1_
FNDA:1,_ZN10BinaryTreeI8TreeNodeE15InsertRightNodeEPS1_S2_
FNDA:11,_ZN10BinaryTreeI8TreeNodeE14PreOrderTraverEPS1_
FNDA:11,_ZN10BinaryTreeI8TreeNodeE13InOrderTraverEPS1_
FNDA:11,_ZN10BinaryTreeI8TreeNodeE13OnOrderTraverEPS1_
FNF:9
FNH:9
DA:8,5
DA:10,5
DA:14,1
DA:16,1
DA:20,1
DA:22,1
DA:24,0
DA:27,1
DA:29,1
DA:34,1
DA:37,1
DA:39,0
DA:42,1
DA:44,1
DA:49,1
DA:51,1
DA:53,0
DA:56,1
DA:58,1
DA:63,1
DA:66,1
DA:68,0
DA:71,1
DA:73,1
DA:90,11
DA:92,11
DA:94,6
DA:97,5
DA:98,5
DA:99,5
DA:101,5
DA:106,11
DA:108,11
DA:110,6
DA:113,5
DA:114,5
DA:115,5
DA:117,5
DA:122,11
DA:124,11
DA:126,6
DA:129,5
DA:130,5
DA:131,5
DA:133,5
LF:45
LH:41
end_of_record
SF:/opt/ide/include/gtest/gtest-message.h
FN:90,_ZN7testing7MessageD2Ev
FNDA:47,_ZN7testing7MessageD2Ev
FNF:1
FNH:1
DA:90,47
LF:1
LH:1
end_of_record
SF:/opt/ide/include/gtest/gtest-printers.h
FN:260,_ZN16testing_internal26DefaultPrintNonContainerToIjEEvRKT_PSo
FN:260,_ZN16testing_internal26DefaultPrintNonContainerToIiEEvRKT_PSo
FN:313,_ZN7testing8internal19FormatForComparisonIjiE6FormatERKj
FN:313,_ZN7testing8internal19FormatForComparisonIijE6FormatERKi
FN:313,_ZN7testing8internal19FormatForComparisonIiiE6FormatERKi
FN:377,_ZN7testing8internal33FormatForComparisonFailureMessageIjiEESsRKT_RKT0_
FN:377,_ZN7testing8internal33FormatForComparisonFailureMessageIijEESsRKT_RKT0_
FN:377,_ZN7testing8internal33FormatForComparisonFailureMessageIiiEESsRKT_RKT0_
FN:466,_ZN7testing8internal14DefaultPrintToIiEEvNS0_15WrapPrinterTypeILNS0_18DefaultPrinterTypeE3EEERKT_PSo
FN:466,_ZN7testing8internal14DefaultPrintToIjEEvNS0_15WrapPrinterTypeILNS0_18DefaultPrinterTypeE3EEERKT_PSo
FN:483,_ZN7testing8internal7PrintToIiEEvRKT_PSo
FN:483,_ZN7testing8internal7PrintToIjEEvRKT_PSo
FN:670,_ZN7testing8internal16UniversalPrinterIjE5PrintERKjPSo
FN:670,_ZN7testing8internal16UniversalPrinterIiE5PrintERKiPSo
FN:796,_ZN7testing8internal21UniversalTersePrinterIjE5PrintERKjPSo
FN:796,_ZN7testing8internal21UniversalTersePrinterIiE5PrintERKiPSo
FN:865,_ZN7testing8internal14UniversalPrintIiEEvRKT_PSo
FN:865,_ZN7testing8internal14UniversalPrintIjEEvRKT_PSo
FN:915,_ZN7testing13PrintToStringIjEESsRKT_
FN:915,_ZN7testing13PrintToStringIiEESsRKT_
FNDA:0,_ZN16testing_internal26DefaultPrintNonContainerToIjEEvRKT_PSo
FNDA:0,_ZN16testing_internal26DefaultPrintNonContainerToIiEEvRKT_PSo
FNDA:0,_ZN7testing8internal19FormatForComparisonIjiE6FormatERKj
FNDA:0,_ZN7testing8internal19FormatForComparisonIijE6FormatERKi
FNDA:0,_ZN7testing8internal19FormatForComparisonIiiE6FormatERKi
FNDA:0,_ZN7testing8internal33FormatForComparisonFailureMessageIjiEESsRKT_RKT0_
FNDA:0,_ZN7testing8internal33FormatForComparisonFailureMessageIijEESsRKT_RKT0_
FNDA:0,_ZN7testing8internal33FormatForComparisonFailureMessageIiiEESsRKT_RKT0_
FNDA:0,_ZN7testing8internal14DefaultPrintToIjEEvNS0_15WrapPrinterTypeILNS0_18DefaultPrinterTypeE3EEERKT_PSo
FNDA:0,_ZN7testing8internal14DefaultPrintToIiEEvNS0_15WrapPrinterTypeILNS0_18DefaultPrinterTypeE3EEERKT_PSo
FNDA:0,_ZN7testing8internal7PrintToIjEEvRKT_PSo
FNDA:0,_ZN7testing8internal7PrintToIiEEvRKT_PSo
FNDA:0,_ZN7testing8internal16UniversalPrinterIjE5PrintERKjPSo
FNDA:0,_ZN7testing8internal16UniversalPrinterIiE5PrintERKiPSo
FNDA:0,_ZN7testing8internal21UniversalTersePrinterIjE5PrintERKjPSo
FNDA:0,_ZN7testing8internal21UniversalTersePrinterIiE5PrintERKiPSo
FNDA:0,_ZN7testing8internal14UniversalPrintIjEEvRKT_PSo
FNDA:0,_ZN7testing8internal14UniversalPrintIiEEvRKT_PSo
FNDA:0,_ZN7testing13PrintToStringIjEESsRKT_
FNDA:0,_ZN7testing13PrintToStringIiEESsRKT_
FNF:20
FNH:0
DA:260,0
DA:287,0
DA:288,0
DA:313,0
DA:314,0
DA:377,0
DA:379,0
DA:466,0
DA:468,0
DA:469,0
DA:483,0
DA:503,0
DA:513,0
DA:514,0
DA:670,0
DA:679,0
DA:680,0
DA:796,0
DA:797,0
DA:798,0
DA:865,0
DA:869,0
DA:870,0
DA:915,0
DA:916,0
DA:917,0
DA:918,0
LF:27
LH:0
end_of_record
SF:/opt/ide/include/gtest/gtest.h
FN:275,_ZN7testing15AssertionResultD2Ev
FN:312,_ZNK7testing15AssertionResultcvbEv
FN:321,_ZNK7testing15AssertionResult7messageEv
FN:325,_ZNK7testing15AssertionResult15failure_messageEv
FN:415,_ZN7testing4Test14SetUpTestSuiteEv
FN:423,_ZN7testing4Test17TearDownTestSuiteEv
FN:427,_ZN7testing4Test16TearDownTestCaseEv
FN:428,_ZN7testing4Test13SetUpTestCaseEv
FN:509,_ZN7testing4Test5SetupEv
FN:1484,_ZN7testing8internal18CmpHelperEQFailureIijEENS_15AssertionResultEPKcS4_RKT_RKT0_
FN:1484,_ZN7testing8internal18CmpHelperEQFailureIiiEENS_15AssertionResultEPKcS4_RKT_RKT0_
FN:1503,_ZN7testing8internal11CmpHelperEQIiiEENS_15AssertionResultEPKcS4_RKT_RKT0_
FN:1503,_ZN7testing8internal11CmpHelperEQIijEENS_15AssertionResultEPKcS4_RKT_RKT0_
FN:1531,_ZN7testing8internal8EqHelper7CompareIijLPv0EEENS_15AssertionResultEPKcS6_RKT_RKT0_
FN:1531,_ZN7testing8internal8EqHelper7CompareIiiLPv0EEENS_15AssertionResultEPKcS6_RKT_RKT0_
FNDA:11,_ZN7testing15AssertionResultD2Ev
FNDA:11,_ZNK7testing15AssertionResultcvbEv
FNDA:0,_ZNK7testing15AssertionResult7messageEv
FNDA:0,_ZNK7testing15AssertionResult15failure_messageEv
FNDA:0,_ZN7testing4Test14SetUpTestSuiteEv
FNDA:0,_ZN7testing4Test17TearDownTestSuiteEv
FNDA:0,_ZN7testing4Test16TearDownTestCaseEv
FNDA:0,_ZN7testing4Test13SetUpTestCaseEv
FNDA:0,_ZN7testing4Test5SetupEv
FNDA:0,_ZN7testing8internal18CmpHelperEQFailureIijEENS_15AssertionResultEPKcS4_RKT_RKT0_
FNDA:0,_ZN7testing8internal18CmpHelperEQFailureIiiEENS_15AssertionResultEPKcS4_RKT_RKT0_
FNDA:2,_ZN7testing8internal11CmpHelperEQIijEENS_15AssertionResultEPKcS4_RKT_RKT0_
FNDA:7,_ZN7testing8internal11CmpHelperEQIiiEENS_15AssertionResultEPKcS4_RKT_RKT0_
FNDA:2,_ZN7testing8internal8EqHelper7CompareIijLPv0EEENS_15AssertionResultEPKcS6_RKT_RKT0_
FNDA:7,_ZN7testing8internal8EqHelper7CompareIiiLPv0EEENS_15AssertionResultEPKcS6_RKT_RKT0_
FNF:15
FNH:6
DA:275,11
DA:312,11
DA:321,0
DA:322,0
DA:325,0
DA:415,0
DA:423,0
DA:427,0
DA:428,0
DA:509,0
DA:1484,0
DA:1491,0
DA:1503,9
DA:1507,9
DA:1508,9
DA:1511,0
DA:1531,9
DA:1534,9
LF:18
LH:7
end_of_record
SF:/opt/ide/include/gtest/internal/gtest-internal.h
FN:423,_ZN7testing8internal9GetTypeIdIN12_GLOBAL__N_114TestBinaryTreeEEEPKvv
FN:442,_ZN7testing8internal15TestFactoryBaseD0Ev
FN:442,_ZN7testing8internal15TestFactoryBaseD2Ev
FN:449,_ZN7testing8internal15TestFactoryBaseC2Ev
FN:458,_ZN7testing8internal15TestFactoryImplI36TestBinaryTree_TEST_BINARY_TREE_TestEC2Ev
FN:458,_ZN7testing8internal15TestFactoryImplI36TestBinaryTree_TEST_BINARY_TREE_TestED0Ev
FN:458,_ZN7testing8internal15TestFactoryImplI36TestBinaryTree_TEST_BINARY_TREE_TestED2Ev
FN:460,_ZN7testing8internal15TestFactoryImplI36TestBinaryTree_TEST_BINARY_TREE_TestE10CreateTestEv
FN:480,_ZN7testing8internal12CodeLocationD2Ev
FN:481,_ZN7testing8internal12CodeLocationC2ERKSsi
FN:494,_ZN7testing8internal19GetNotDefaultOrNullEPFvvES2_
FN:509,_ZN7testing8internal16SuiteApiResolverIN12_GLOBAL__N_114TestBinaryTreeEE19GetSetUpCaseOrSuiteEPKci
FN:524,_ZN7testing8internal16SuiteApiResolverIN12_GLOBAL__N_114TestBinaryTreeEE22GetTearDownCaseOrSuiteEPKci
FNDA:1,_ZN7testing8internal9GetTypeIdIN12_GLOBAL__N_114TestBinaryTreeEEEPKvv
FNDA:0,_ZN7testing8internal15TestFactoryBaseD0Ev
FNDA:0,_ZN7testing8internal15TestFactoryBaseD2Ev
FNDA:1,_ZN7testing8internal15TestFactoryBaseC2Ev
FNDA:0,_ZN7testing8internal15TestFactoryImplI36TestBinaryTree_TEST_BINARY_TREE_TestED0Ev
FNDA:0,_ZN7testing8internal15TestFactoryImplI36TestBinaryTree_TEST_BINARY_TREE_TestED2Ev
FNDA:1,_ZN7testing8internal15TestFactoryImplI36TestBinaryTree_TEST_BINARY_TREE_TestEC2Ev
FNDA:1,_ZN7testing8internal15TestFactoryImplI36TestBinaryTree_TEST_BINARY_TREE_TestE10CreateTestEv
FNDA:2,_ZN7testing8internal12CodeLocationD2Ev
FNDA:1,_ZN7testing8internal12CodeLocationC2ERKSsi
FNDA:4,_ZN7testing8internal19GetNotDefaultOrNullEPFvvES2_
FNDA:1,_ZN7testing8internal16SuiteApiResolverIN12_GLOBAL__N_114TestBinaryTreeEE19GetSetUpCaseOrSuiteEPKci
FNDA:1,_ZN7testing8internal16SuiteApiResolverIN12_GLOBAL__N_114TestBinaryTreeEE22GetTearDownCaseOrSuiteEPKci
FNF:13
FNH:9
DA:423,1
DA:428,1
DA:442,0
DA:449,1
DA:458,1
DA:460,1
DA:480,2
DA:481,1
DA:482,1
DA:494,4
DA:496,4
DA:509,1
DA:512,1
DA:514,1
DA:516,1
DA:517,0
DA:519,0
DA:521,1
DA:524,1
DA:527,1
DA:529,1
DA:531,1
DA:532,0
DA:534,0
DA:536,1
LF:25
LH:20
end_of_record
SF:/opt/ide/include/gtest/internal/gtest-param-util.h
FN:91,_ZN7testing8internal22ParamIteratorInterfaceIbEC2Ev
FN:93,_ZN7testing8internal22ParamIteratorInterfaceIbED2Ev
FN:93,_ZN7testing8internal22ParamIteratorInterfaceIbED0Ev
FN:168,_ZN7testing8internal23ParamGeneratorInterfaceIbED0Ev
FN:168,_ZN7testing8internal23ParamGeneratorInterfaceIbED2Ev
FN:295,_ZN7testing8internal30ValuesInIteratorRangeGeneratorIbED0Ev
FN:295,_ZN7testing8internal30ValuesInIteratorRangeGeneratorIbED2Ev
FN:297,_ZNK7testing8internal30ValuesInIteratorRangeGeneratorIbE5BeginEv
FN:300,_ZNK7testing8internal30ValuesInIteratorRangeGeneratorIbE3EndEv
FN:309,_ZN7testing8internal30ValuesInIteratorRangeGeneratorIbE8IteratorC2EPKNS0_23ParamGeneratorInterfaceIbEESt19_Bit_const_iterator
FN:312,_ZN7testing8internal30ValuesInIteratorRangeGeneratorIbE8IteratorD0Ev
FN:312,_ZN7testing8internal30ValuesInIteratorRangeGeneratorIbE8IteratorD2Ev
FN:314,_ZNK7testing8internal30ValuesInIteratorRangeGeneratorIbE8Iterator13BaseGeneratorEv
FN:317,_ZN7testing8internal30ValuesInIteratorRangeGeneratorIbE8Iterator7AdvanceEv
FN:321,_ZNK7testing8internal30ValuesInIteratorRangeGeneratorIbE8Iterator5CloneEv
FN:331,_ZNK7testing8internal30ValuesInIteratorRangeGeneratorIbE8Iterator7CurrentEv
FN:335,_ZNK7testing8internal30ValuesInIteratorRangeGeneratorIbE8Iterator6EqualsERKNS0_22ParamIteratorInterfaceIbEE
FN:346,_ZN7testing8internal30ValuesInIteratorRangeGeneratorIbE8IteratorC2ERKS3_
FNDA:0,_ZN7testing8internal22ParamIteratorInterfaceIbEC2Ev
FNDA:0,_ZN7testing8internal22ParamIteratorInterfaceIbED0Ev
FNDA:0,_ZN7testing8internal22ParamIteratorInterfaceIbED2Ev
FNDA:0,_ZN7testing8internal23ParamGeneratorInterfaceIbED0Ev
FNDA:0,_ZN7testing8internal23ParamGeneratorInterfaceIbED2Ev
FNDA:0,_ZN7testing8internal30ValuesInIteratorRangeGeneratorIbED0Ev
FNDA:0,_ZN7testing8internal30ValuesInIteratorRangeGeneratorIbED2Ev
FNDA:0,_ZNK7testing8internal30ValuesInIteratorRangeGeneratorIbE5BeginEv
FNDA:0,_ZNK7testing8internal30ValuesInIteratorRangeGeneratorIbE3EndEv
FNDA:0,_ZN7testing8internal30ValuesInIteratorRangeGeneratorIbE8IteratorC2EPKNS0_23ParamGeneratorInterfaceIbEESt19_Bit_const_iterator
FNDA:0,_ZN7testing8internal30ValuesInIteratorRangeGeneratorIbE8IteratorD0Ev
FNDA:0,_ZN7testing8internal30ValuesInIteratorRangeGeneratorIbE8IteratorD2Ev
FNDA:0,_ZNK7testing8internal30ValuesInIteratorRangeGeneratorIbE8Iterator13BaseGeneratorEv
FNDA:0,_ZN7testing8internal30ValuesInIteratorRangeGeneratorIbE8Iterator7AdvanceEv
FNDA:0,_ZNK7testing8internal30ValuesInIteratorRangeGeneratorIbE8Iterator5CloneEv
FNDA:0,_ZNK7testing8internal30ValuesInIteratorRangeGeneratorIbE8Iterator7CurrentEv
FNDA:0,_ZNK7testing8internal30ValuesInIteratorRangeGeneratorIbE8Iterator6EqualsERKNS0_22ParamIteratorInterfaceIbEE
FNDA:0,_ZN7testing8internal30ValuesInIteratorRangeGeneratorIbE8IteratorC2ERKS3_
FNF:18
FNH:0
DA:91,0
DA:93,0
DA:168,0
DA:295,0
DA:297,0
DA:298,0
DA:300,0
DA:301,0
DA:309,0
DA:311,0
DA:312,0
DA:314,0
DA:315,0
DA:317,0
DA:318,0
DA:319,0
DA:320,0
DA:321,0
DA:322,0
DA:331,0
DA:332,0
DA:333,0
DA:335,0
DA:338,0
DA:339,0
DA:340,0
DA:341,0
DA:342,0
DA:346,0
DA:351,0
LF:30
LH:0
end_of_record
SF:/opt/ide/include/gtest/internal/gtest-port.h
FN:980,_ZN7testing8internal8GTestLog9GetStreamEv
FN:1135,_ZN7testing8internal27CheckedDowncastToActualTypeIKNS0_30ValuesInIteratorRangeGeneratorIbE8IteratorEKNS0_22ParamIteratorInterfaceIbEEEEPT_PT0_
FNDA:0,_ZN7testing8internal8GTestLog9GetStreamEv
FNDA:0,_ZN7testing8internal27CheckedDowncastToActualTypeIKNS0_30ValuesInIteratorRangeGeneratorIbE8IteratorEKNS0_22ParamIteratorInterfaceIbEEEEPT_PT0_
FNF:2
FNH:0
DA:980,0
DA:1135,0
DA:1137,0
DA:1143,0
LF:4
LH:0
end_of_record
SF:/usr/include/c++/4.8.2/bits/allocator.h
FN:121,_ZNSaImED2Ev
FN:133,_ZSteqIcEbRKSaIT_ES3_
FNDA:0,_ZNSaImED2Ev
FNDA:0,_ZSteqIcEbRKSaIT_ES3_
FNF:2
FNH:0
DA:121,0
DA:133,0
DA:134,0
LF:3
LH:0
end_of_record
SF:/usr/include/c++/4.8.2/bits/basic_ios.h
FN:46,_ZSt13__check_facetISt5ctypeIcEERKT_PS3_
FNDA:0,_ZSt13__check_facetISt5ctypeIcEERKT_PS3_
FNF:1
FNH:0
DA:46,0
DA:48,0
DA:49,0
DA:50,0
LF:4
LH:0
end_of_record
SF:/usr/include/c++/4.8.2/bits/basic_string.h
FN:272,_ZNSs12_Alloc_hiderD2Ev
FN:1721,_ZNSs16_S_construct_auxIPcEES0_T_S1_RKSaIcESt12__false_type
FN:1743,_ZNSs12_S_constructIPcEES0_T_S1_RKSaIcE
FNDA:0,_ZNSs12_Alloc_hiderD2Ev
FNDA:0,_ZNSs16_S_construct_auxIPcEES0_T_S1_RKSaIcESt12__false_type
FNDA:0,_ZNSs12_S_constructIPcEES0_T_S1_RKSaIcE
FNF:3
FNH:0
DA:272,0
DA:1721,0
DA:1725,0
DA:1743,0
DA:1746,0
LF:5
LH:0
end_of_record
SF:/usr/include/c++/4.8.2/bits/basic_string.tcc
FN:123,_ZNSs12_S_constructIPcEES0_T_S1_RKSaIcESt20forward_iterator_tag
FN:227,_ZNSsC2IPcEET_S1_RKSaIcE
FNDA:0,_ZNSs12_S_constructIPcEES0_T_S1_RKSaIcESt20forward_iterator_tag
FNDA:0,_ZNSsC2IPcEET_S1_RKSaIcE
FNF:2
FNH:0
DA:123,0
DA:128,0
DA:129,0
DA:132,0
DA:133,0
DA:136,0
DA:138,0
DA:140,0
DA:141,0
DA:143,0
DA:144,0
DA:146,0
DA:147,0
DA:227,0
DA:229,0
DA:230,0
LF:16
LH:0
end_of_record
SF:/usr/include/c++/4.8.2/bits/char_traits.h
FN:242,_ZNSt11char_traitsIcE6assignERcRKc
FN:258,_ZNSt11char_traitsIcE6lengthEPKc
FN:270,_ZNSt11char_traitsIcE4copyEPcPKcm
FNDA:0,_ZNSt11char_traitsIcE6assignERcRKc
FNDA:0,_ZNSt11char_traitsIcE6lengthEPKc
FNDA:0,_ZNSt11char_traitsIcE4copyEPcPKcm
FNF:3
FNH:0
DA:242,0
DA:243,0
DA:258,0
DA:259,0
DA:270,0
DA:271,0
LF:6
LH:0
end_of_record
SF:/usr/include/c++/4.8.2/bits/ios_base.h
FN:119,_ZStorSt13_Ios_OpenmodeS_
FN:157,_ZStorSt12_Ios_IostateS_
FNDA:47,_ZStorSt13_Ios_OpenmodeS_
FNDA:0,_ZStorSt12_Ios_IostateS_
FNF:2
FNH:1
DA:119,47
DA:120,47
DA:157,0
DA:158,0
LF:4
LH:2
end_of_record
SF:/usr/include/c++/4.8.2/bits/locale_facets.h
FN:865,_ZNKSt5ctypeIcE5widenEc
FNDA:0,_ZNKSt5ctypeIcE5widenEc
FNF:1
FNH:0
DA:865,0
DA:867,0
DA:868,0
DA:869,0
DA:870,0
LF:5
LH:0
end_of_record
SF:/usr/include/c++/4.8.2/bits/move.h
FN:101,_ZSt4moveIRPKbEONSt16remove_referenceIT_E4typeEOS4_
FN:166,_ZSt4swapIPKbEvRT_S3_
FNDA:0,_ZSt4moveIRPKbEONSt16remove_referenceIT_E4typeEOS4_
FNDA:0,_ZSt4swapIPKbEvRT_S3_
FNF:2
FNH:0
DA:101,0
DA:102,0
DA:166,0
DA:175,0
DA:176,0
DA:177,0
DA:178,0
LF:7
LH:0
end_of_record
SF:/usr/include/c++/4.8.2/bits/shared_ptr_base.h
FN:113,_ZNSt16_Sp_counted_baseILN9__gnu_cxx12_Lock_policyE2EED0Ev
FN:113,_ZNSt16_Sp_counted_baseILN9__gnu_cxx12_Lock_policyE2EED2Ev
FN:123,_ZNSt16_Sp_counted_baseILN9__gnu_cxx12_Lock_policyE2EE10_M_destroyEv
FN:281,_ZNSt15_Sp_counted_ptrIPN7testing8internal23ParamGeneratorInterfaceIbEELN9__gnu_cxx12_Lock_policyE2EED0Ev
FN:281,_ZNSt15_Sp_counted_ptrIPN7testing8internal23ParamGeneratorInterfaceIbEELN9__gnu_cxx12_Lock_policyE2EED2Ev
FN:289,_ZNSt15_Sp_counted_ptrIPN7testing8internal23ParamGeneratorInterfaceIbEELN9__gnu_cxx12_Lock_policyE2EE10_M_disposeEv
FN:293,_ZNSt15_Sp_counted_ptrIPN7testing8internal23ParamGeneratorInterfaceIbEELN9__gnu_cxx12_Lock_policyE2EE10_M_destroyEv
FN:297,_ZNSt15_Sp_counted_ptrIPN7testing8internal23ParamGeneratorInterfaceIbEELN9__gnu_cxx12_Lock_policyE2EE14_M_get_deleterERKSt9type_info
FNDA:0,_ZNSt16_Sp_counted_baseILN9__gnu_cxx12_Lock_policyE2EED0Ev
FNDA:0,_ZNSt16_Sp_counted_baseILN9__gnu_cxx12_Lock_policyE2EED2Ev
FNDA:0,_ZNSt16_Sp_counted_baseILN9__gnu_cxx12_Lock_policyE2EE10_M_destroyEv
FNDA:0,_ZNSt15_Sp_counted_ptrIPN7testing8internal23ParamGeneratorInterfaceIbEELN9__gnu_cxx12_Lock_policyE2EED0Ev
FNDA:0,_ZNSt15_Sp_counted_ptrIPN7testing8internal23ParamGeneratorInterfaceIbEELN9__gnu_cxx12_Lock_policyE2EED2Ev
FNDA:0,_ZNSt15_Sp_counted_ptrIPN7testing8internal23ParamGeneratorInterfaceIbEELN9__gnu_cxx12_Lock_policyE2EE10_M_disposeEv
FNDA:0,_ZNSt15_Sp_counted_ptrIPN7testing8internal23ParamGeneratorInterfaceIbEELN9__gnu_cxx12_Lock_policyE2EE10_M_destroyEv
FNDA:0,_ZNSt15_Sp_counted_ptrIPN7testing8internal23ParamGeneratorInterfaceIbEELN9__gnu_cxx12_Lock_policyE2EE14_M_get_deleterERKSt9type_info
FNF:8
FNH:0
DA:113,0
DA:114,0
DA:123,0
DA:124,0
DA:281,0
DA:289,0
DA:290,0
DA:293,0
DA:294,0
DA:297,0
DA:298,0
LF:11
LH:0
end_of_record
SF:/usr/include/c++/4.8.2/bits/stl_bvector.h
FN:75,_ZNSt14_Bit_referenceC2EPmm
FN:80,_ZNKSt14_Bit_referencecvbEv
FN:142,_ZNSt18_Bit_iterator_baseC2EPmj
FN:146,_ZNSt18_Bit_iterator_base10_M_bump_upEv
FN:180,_ZNKSt18_Bit_iterator_baseeqERKS_
FN:308,_ZNSt19_Bit_const_iteratorC2ERKSt13_Bit_iterator
FN:312,_ZNKSt19_Bit_const_iteratordeEv
FN:316,_ZNSt19_Bit_const_iteratorppEv
FN:408,_ZNSt13_Bvector_baseISaIbEE13_Bvector_implD2Ev
FN:465,_ZNSt13_Bvector_baseISaIbEED2Ev
FN:476,_ZNSt13_Bvector_baseISaIbEE13_M_deallocateEv
FN:621,_ZNSt6vectorIbSaIbEED2Ev
FN:692,_ZNKSt6vectorIbSaIbEE5beginEv
FN:700,_ZNKSt6vectorIbSaIbEE3endEv
FNDA:0,_ZNSt14_Bit_referenceC2EPmm
FNDA:0,_ZNKSt14_Bit_referencecvbEv
FNDA:0,_ZNSt18_Bit_iterator_baseC2EPmj
FNDA:0,_ZNSt18_Bit_iterator_base10_M_bump_upEv
FNDA:0,_ZNKSt18_Bit_iterator_baseeqERKS_
FNDA:0,_ZNSt19_Bit_const_iteratorC2ERKSt13_Bit_iterator
FNDA:0,_ZNKSt19_Bit_const_iteratordeEv
FNDA:0,_ZNSt19_Bit_const_iteratorppEv
FNDA:0,_ZNSt13_Bvector_baseISaIbEE13_Bvector_implD2Ev
FNDA:0,_ZNSt13_Bvector_baseISaIbEED2Ev
FNDA:0,_ZNSt13_Bvector_baseISaIbEE13_M_deallocateEv
FNDA:0,_ZNSt6vectorIbSaIbEED2Ev
FNDA:0,_ZNKSt6vectorIbSaIbEE5beginEv
FNDA:0,_ZNKSt6vectorIbSaIbEE3endEv
FNF:14
FNH:0
DA:75,0
DA:76,0
DA:80,0
DA:81,0
DA:142,0
DA:143,0
DA:146,0
DA:148,0
DA:150,0
DA:151,0
DA:153,0
DA:180,0
DA:181,0
DA:308,0
DA:309,0
DA:312,0
DA:313,0
DA:316,0
DA:318,0
DA:319,0
DA:408,0
DA:465,0
DA:466,0
DA:476,0
DA:478,0
DA:479,0
DA:481,0
DA:621,0
DA:692,0
DA:693,0
DA:700,0
DA:701,0
LF:32
LH:0
end_of_record
SF:/usr/include/c++/4.8.2/bits/stl_iterator_base_funcs.h
FN:90,_ZSt10__distanceIPcENSt15iterator_traitsIT_E15difference_typeES2_S2_St26random_access_iterator_tag
FN:114,_ZSt8distanceIPcENSt15iterator_traitsIT_E15difference_typeES2_S2_
FNDA:0,_ZSt10__distanceIPcENSt15iterator_traitsIT_E15difference_typeES2_S2_St26random_access_iterator_tag
FNDA:0,_ZSt8distanceIPcENSt15iterator_traitsIT_E15difference_typeES2_S2_
FNF:2
FNH:0
DA:90,0
DA:96,0
DA:114,0
DA:118,0
LF:4
LH:0
end_of_record
SF:/usr/include/c++/4.8.2/bits/stl_iterator_base_types.h
FN:118,_ZNSt8iteratorISt26random_access_iterator_tagblPbRbEC2Ev
FN:201,_ZSt19__iterator_categoryIPcENSt15iterator_traitsIT_E17iterator_categoryERKS2_
FNDA:0,_ZNSt8iteratorISt26random_access_iterator_tagblPbRbEC2Ev
FNDA:0,_ZSt19__iterator_categoryIPcENSt15iterator_traitsIT_E17iterator_categoryERKS2_
FNF:2
FNH:0
DA:118,0
DA:201,0
DA:202,0
LF:3
LH:0
end_of_record
SF:/usr/include/c++/4.8.2/bits/unique_ptr.h
FN:63,_ZNKSt14default_deleteIKbEclEPS0_
FN:63,_ZNKSt14default_deleteISt18basic_stringstreamIcSt11char_traitsIcESaIcEEEclEPS4_
FN:63,_ZNKSt14default_deleteISsEclEPSs
FN:180,_ZNSt10unique_ptrIKbSt14default_deleteIS0_EED2Ev
FN:180,_ZNSt10unique_ptrISt18basic_stringstreamIcSt11char_traitsIcESaIcEESt14default_deleteIS4_EED2Ev
FN:180,_ZNSt10unique_ptrISsSt14default_deleteISsEED2Ev
FN:226,_ZNKSt10unique_ptrISsSt14default_deleteISsEEptEv
FN:233,_ZNKSt10unique_ptrISsSt14default_deleteISsEE3getEv
FN:233,_ZNKSt10unique_ptrIKbSt14default_deleteIS0_EE3getEv
FN:237,_ZNSt10unique_ptrIKbSt14default_deleteIS0_EE11get_deleterEv
FN:237,_ZNSt10unique_ptrISsSt14default_deleteISsEE11get_deleterEv
FN:237,_ZNSt10unique_ptrISt18basic_stringstreamIcSt11char_traitsIcESaIcEESt14default_deleteIS4_EE11get_deleterEv
FN:257,_ZNSt10unique_ptrIKbSt14default_deleteIS0_EE5resetEPS0_
FNDA:0,_ZNKSt14default_deleteIKbEclEPS0_
FNDA:0,_ZNKSt14default_deleteISsEclEPSs
FNDA:47,_ZNKSt14default_deleteISt18basic_stringstreamIcSt11char_traitsIcESaIcEEEclEPS4_
FNDA:0,_ZNSt10unique_ptrIKbSt14default_deleteIS0_EED2Ev
FNDA:11,_ZNSt10unique_ptrISsSt14default_deleteISsEED2Ev
FNDA:47,_ZNSt10unique_ptrISt18basic_stringstreamIcSt11char_traitsIcESaIcEESt14default_deleteIS4_EED2Ev
FNDA:0,_ZNKSt10unique_ptrISsSt14default_deleteISsEEptEv
FNDA:0,_ZNKSt10unique_ptrIKbSt14default_deleteIS0_EE3getEv
FNDA:0,_ZNKSt10unique_ptrISsSt14default_deleteISsEE3getEv
FNDA:0,_ZNSt10unique_ptrIKbSt14default_deleteIS0_EE11get_deleterEv
FNDA:0,_ZNSt10unique_ptrISsSt14default_deleteISsEE11get_deleterEv
FNDA:47,_ZNSt10unique_ptrISt18basic_stringstreamIcSt11char_traitsIcESaIcEESt14default_deleteIS4_EE11get_deleterEv
FNDA:0,_ZNSt10unique_ptrIKbSt14default_deleteIS0_EE5resetEPS0_
FNF:13
FNH:4
DA:63,47
DA:67,47
DA:68,47
DA:180,58
DA:182,58
DA:183,58
DA:184,47
DA:185,58
DA:186,58
DA:226,0
DA:229,0
DA:233,0
DA:234,0
DA:237,47
DA:238,47
DA:257,0
DA:260,0
DA:261,0
DA:262,0
DA:263,0
LF:20
LH:11
end_of_record
SF:/usr/include/c++/4.8.2/ext/atomicity.h
FN:48,_ZN9__gnu_cxxL18__exchange_and_addEPVii
FN:65,_ZN9__gnu_cxxL25__exchange_and_add_singleEPii
FN:78,_ZN9__gnu_cxxL27__exchange_and_add_dispatchEPii
FNDA:0,_ZN9__gnu_cxxL18__exchange_and_addEPVii
FNDA:0,_ZN9__gnu_cxxL25__exchange_and_add_singleEPii
FNDA:0,_ZN9__gnu_cxxL27__exchange_and_add_dispatchEPii
FNF:3
FNH:0
DA:48,0
DA:49,0
DA:65,0
DA:67,0
DA:68,0
DA:69,0
DA:78,0
DA:81,0
DA:82,0
DA:84,0
LF:10
LH:0
end_of_record
SF:/usr/include/c++/4.8.2/ext/new_allocator.h
FN:79,_ZN9__gnu_cxx13new_allocatorIcEC2Ev
FN:81,_ZN9__gnu_cxx13new_allocatorIcEC2ERKS1_
FN:86,_ZN9__gnu_cxx13new_allocatorImED2Ev
FN:86,_ZN9__gnu_cxx13new_allocatorIcED2Ev
FN:109,_ZN9__gnu_cxx13new_allocatorImE10deallocateEPmm
FNDA:0,_ZN9__gnu_cxx13new_allocatorIcEC2Ev
FNDA:0,_ZN9__gnu_cxx13new_allocatorIcEC2ERKS1_
FNDA:0,_ZN9__gnu_cxx13new_allocatorImED2Ev
FNDA:0,_ZN9__gnu_cxx13new_allocatorIcED2Ev
FNDA:0,_ZN9__gnu_cxx13new_allocatorImE10deallocateEPmm
FNF:5
FNH:0
DA:79,0
DA:81,0
DA:86,0
DA:109,0
DA:110,0
LF:5
LH:0
end_of_record
SF:/usr/include/c++/4.8.2/ext/type_traits.h
FN:150,_ZN9__gnu_cxx17__is_null_pointerIcEEbPT_
FNDA:0,_ZN9__gnu_cxx17__is_null_pointerIcEEbPT_
FNF:1
FNH:0
DA:150,0
DA:151,0
LF:2
LH:0
end_of_record
SF:/usr/include/c++/4.8.2/iostream
DA:74,1
LF:1
LH:1
end_of_record
SF:/usr/include/c++/4.8.2/sstream
FN:64,_ZNSt15basic_stringbufIcSt11char_traitsIcESaIcEED0Ev
FN:64,_ZNSt15basic_stringbufIcSt11char_traitsIcESaIcEED2Ev
FNDA:0,_ZNSt15basic_stringbufIcSt11char_traitsIcESaIcEED0Ev
FNDA:0,_ZNSt15basic_stringbufIcSt11char_traitsIcESaIcEED2Ev
FNF:2
FNH:0
DA:64,0
LF:1
LH:0
end_of_record
SF:/usr/include/c++/4.8.2/tuple
FN:122,_ZNSt10_Head_baseILm1ESt14default_deleteISt18basic_stringstreamIcSt11char_traitsIcESaIcEEELb1EE7_M_headERS7_
FN:122,_ZNSt10_Head_baseILm1ESt14default_deleteIKbELb1EE7_M_headERS3_
FN:122,_ZNSt10_Head_baseILm1ESt14default_deleteISsELb1EE7_M_headERS2_
FN:169,_ZNSt10_Head_baseILm0EPSt18basic_stringstreamIcSt11char_traitsIcESaIcEELb0EE7_M_headERS6_
FN:169,_ZNSt10_Head_baseILm0EPKbLb0EE7_M_headERS2_
FN:169,_ZNSt10_Head_baseILm0EPSsLb0EE7_M_headERS1_
FN:172,_ZNSt10_Head_baseILm0EPKbLb0EE7_M_headERKS2_
FN:172,_ZNSt10_Head_baseILm0EPSsLb0EE7_M_headERKS1_
FN:241,_ZNSt11_Tuple_implILm1EISt14default_deleteIKbEEE7_M_headERS3_
FN:241,_ZNSt11_Tuple_implILm0EIPKbSt14default_deleteIS0_EEE7_M_headERS4_
FN:241,_ZNSt11_Tuple_implILm0EIPSt18basic_stringstreamIcSt11char_traitsIcESaIcEESt14default_deleteIS4_EEE7_M_headERS8_
FN:241,_ZNSt11_Tuple_implILm1EISt14default_deleteISsEEE7_M_headERS2_
FN:241,_ZNSt11_Tuple_implILm0EIPSsSt14default_deleteISsEEE7_M_headERS3_
FN:241,_ZNSt11_Tuple_implILm1EISt14default_deleteISt18basic_stringstreamIcSt11char_traitsIcESaIcEEEEE7_M_headERS7_
FN:244,_ZNSt11_Tuple_implILm0EIPKbSt14default_deleteIS0_EEE7_M_headERKS4_
FN:244,_ZNSt11_Tuple_implILm0EIPSsSt14default_deleteISsEEE7_M_headERKS3_
FN:744,_ZSt12__get_helperILm1ESt14default_deleteISt18basic_stringstreamIcSt11char_traitsIcESaIcEEEIEENSt9__add_refIT0_E4typeERSt11_Tuple_implIXT_EIS8_DpT1_EE
FN:744,_ZSt12__get_helperILm1ESt14default_deleteIKbEIEENSt9__add_refIT0_E4typeERSt11_Tuple_implIXT_EIS4_DpT1_EE
FN:744,_ZSt12__get_helperILm0EPSt18basic_stringstreamIcSt11char_traitsIcESaIcEEISt14default_deleteIS4_EEENSt9__add_refIT0_E4typeERSt11_Tuple_implIXT_EIS9_DpT1_EE
FN:744,_ZSt12__get_helperILm0EPKbISt14default_deleteIS0_EEENSt9__add_refIT0_E4typeERSt11_Tuple_implIXT_EIS5_DpT1_EE
FN:744,_ZSt12__get_helperILm1ESt14default_deleteISsEIEENSt9__add_refIT0_E4typeERSt11_Tuple_implIXT_EIS3_DpT1_EE
FN:744,_ZSt12__get_helperILm0EPSsISt14default_deleteISsEEENSt9__add_refIT0_E4typeERSt11_Tuple_implIXT_EIS4_DpT1_EE
FN:749,_ZSt12__get_helperILm0EPKbISt14default_deleteIS0_EEENSt11__add_c_refIT0_E4typeERKSt11_Tuple_implIXT_EIS5_DpT1_EE
FN:749,_ZSt12__get_helperILm0EPSsISt14default_deleteISsEEENSt11__add_c_refIT0_E4typeERKSt11_Tuple_implIXT_EIS4_DpT1_EE
FN:759,_ZSt3getILm0EIPSsSt14default_deleteISsEEENSt9__add_refINSt13tuple_elementIXT_ESt5tupleIIDpT0_EEE4typeEE4typeERS8_
FN:759,_ZSt3getILm0EIPSt18basic_stringstreamIcSt11char_traitsIcESaIcEESt14default_deleteIS4_EEENSt9__add_refINSt13tuple_elementIXT_ESt5tupleIIDpT0_EEE4typeEE4typeERSD_
FN:759,_ZSt3getILm1EIPKbSt14default_deleteIS0_EEENSt9__add_refINSt13tuple_elementIXT_ESt5tupleIIDpT0_EEE4typeEE4typeERS9_
FN:759,_ZSt3getILm1EIPSsSt14default_deleteISsEEENSt9__add_refINSt13tuple_elementIXT_ESt5tupleIIDpT0_EEE4typeEE4typeERS8_
FN:759,_ZSt3getILm0EIPKbSt14default_deleteIS0_EEENSt9__add_refINSt13tuple_elementIXT_ESt5tupleIIDpT0_EEE4typeEE4typeERS9_
FN:759,_ZSt3getILm1EIPSt18basic_stringstreamIcSt11char_traitsIcESaIcEESt14default_deleteIS4_EEENSt9__add_refINSt13tuple_elementIXT_ESt5tupleIIDpT0_EEE4typeEE4typeERSD_
FN:766,_ZSt3getILm0EIPSsSt14default_deleteISsEEENSt11__add_c_refINSt13tuple_elementIXT_ESt5tupleIIDpT0_EEE4typeEE4typeERKS8_
FN:766,_ZSt3getILm0EIPKbSt14default_deleteIS0_EEENSt11__add_c_refINSt13tuple_elementIXT_ESt5tupleIIDpT0_EEE4typeEE4typeERKS9_
FNDA:0,_ZNSt10_Head_baseILm1ESt14default_deleteIKbELb1EE7_M_headERS3_
FNDA:0,_ZNSt10_Head_baseILm1ESt14default_deleteISsELb1EE7_M_headERS2_
FNDA:47,_ZNSt10_Head_baseILm1ESt14default_deleteISt18basic_stringstreamIcSt11char_traitsIcESaIcEEELb1EE7_M_headERS7_
FNDA:0,_ZNSt10_Head_baseILm0EPKbLb0EE7_M_headERS2_
FNDA:11,_ZNSt10_Head_baseILm0EPSsLb0EE7_M_headERS1_
FNDA:47,_ZNSt10_Head_baseILm0EPSt18basic_stringstreamIcSt11char_traitsIcESaIcEELb0EE7_M_headERS6_
FNDA:0,_ZNSt10_Head_baseILm0EPKbLb0EE7_M_headERKS2_
FNDA:0,_ZNSt10_Head_baseILm0EPSsLb0EE7_M_headERKS1_
FNDA:0,_ZNSt11_Tuple_implILm1EISt14default_deleteIKbEEE7_M_headERS3_
FNDA:0,_ZNSt11_Tuple_implILm0EIPKbSt14default_deleteIS0_EEE7_M_headERS4_
FNDA:0,_ZNSt11_Tuple_implILm1EISt14default_deleteISsEEE7_M_headERS2_
FNDA:47,_ZNSt11_Tuple_implILm1EISt14default_deleteISt18basic_stringstreamIcSt11char_traitsIcESaIcEEEEE7_M_headERS7_
FNDA:11,_ZNSt11_Tuple_implILm0EIPSsSt14default_deleteISsEEE7_M_headERS3_
FNDA:47,_ZNSt11_Tuple_implILm0EIPSt18basic_stringstreamIcSt11char_traitsIcESaIcEESt14default_deleteIS4_EEE7_M_headERS8_
FNDA:0,_ZNSt11_Tuple_implILm0EIPKbSt14default_deleteIS0_EEE7_M_headERKS4_
FNDA:0,_ZNSt11_Tuple_implILm0EIPSsSt14default_deleteISsEEE7_M_headERKS3_
FNDA:0,_ZSt12__get_helperILm1ESt14default_deleteIKbEIEENSt9__add_refIT0_E4typeERSt11_Tuple_implIXT_EIS4_DpT1_EE
FNDA:0,_ZSt12__get_helperILm0EPKbISt14default_deleteIS0_EEENSt9__add_refIT0_E4typeERSt11_Tuple_implIXT_EIS5_DpT1_EE
FNDA:0,_ZSt12__get_helperILm1ESt14default_deleteISsEIEENSt9__add_refIT0_E4typeERSt11_Tuple_implIXT_EIS3_DpT1_EE
FNDA:47,_ZSt12__get_helperILm1ESt14default_deleteISt18basic_stringstreamIcSt11char_traitsIcESaIcEEEIEENSt9__add_refIT0_E4typeERSt11_Tuple_implIXT_EIS8_DpT1_EE
FNDA:11,_ZSt12__get_helperILm0EPSsISt14default_deleteISsEEENSt9__add_refIT0_E4typeERSt11_Tuple_implIXT_EIS4_DpT1_EE
FNDA:47,_ZSt12__get_helperILm0EPSt18basic_stringstreamIcSt11char_traitsIcESaIcEEISt14default_deleteIS4_EEENSt9__add_refIT0_E4typeERSt11_Tuple_implIXT_EIS9_DpT1_EE
FNDA:0,_ZSt12__get_helperILm0EPKbISt14default_deleteIS0_EEENSt11__add_c_refIT0_E4typeERKSt11_Tuple_implIXT_EIS5_DpT1_EE
FNDA:0,_ZSt12__get_helperILm0EPSsISt14default_deleteISsEEENSt11__add_c_refIT0_E4typeERKSt11_Tuple_implIXT_EIS4_DpT1_EE
FNDA:0,_ZSt3getILm1EIPKbSt14default_deleteIS0_EEENSt9__add_refINSt13tuple_elementIXT_ESt5tupleIIDpT0_EEE4typeEE4typeERS9_
FNDA:0,_ZSt3getILm0EIPKbSt14default_deleteIS0_EEENSt9__add_refINSt13tuple_elementIXT_ESt5tupleIIDpT0_EEE4typeEE4typeERS9_
FNDA:0,_ZSt3getILm1EIPSsSt14default_deleteISsEEENSt9__add_refINSt13tuple_elementIXT_ESt5tupleIIDpT0_EEE4typeEE4typeERS8_
FNDA:47,_ZSt3getILm1EIPSt18basic_stringstreamIcSt11char_traitsIcESaIcEESt14default_deleteIS4_EEENSt9__add_refINSt13tuple_elementIXT_ESt5tupleIIDpT0_EEE4typeEE4typeERSD_
FNDA:11,_ZSt3getILm0EIPSsSt14default_deleteISsEEENSt9__add_refINSt13tuple_elementIXT_ESt5tupleIIDpT0_EEE4typeEE4typeERS8_
FNDA:47,_ZSt3getILm0EIPSt18basic_stringstreamIcSt11char_traitsIcESaIcEESt14default_deleteIS4_EEENSt9__add_refINSt13tuple_elementIXT_ESt5tupleIIDpT0_EEE4typeEE4typeERSD_
FNDA:0,_ZSt3getILm0EIPKbSt14default_deleteIS0_EEENSt11__add_c_refINSt13tuple_elementIXT_ESt5tupleIIDpT0_EEE4typeEE4typeERKS9_
FNDA:0,_ZSt3getILm0EIPSsSt14default_deleteISsEEENSt11__add_c_refINSt13tuple_elementIXT_ESt5tupleIIDpT0_EEE4typeEE4typeERKS8_
FNF:32
FNH:12
DA:122,47
DA:169,58
DA:172,0
DA:241,105
DA:244,0
DA:744,105
DA:745,105
DA:749,0
DA:750,0
DA:759,105
DA:760,105
DA:766,0
DA:767,0
LF:13
LH:7
end_of_record
SF:/usr/include/c++/4.8.2/typeinfo
FN:120,_ZNKSt9type_infoeqERKS_
FNDA:0,_ZNKSt9type_infoeqERKS_
FNF:1
FNH:0
DA:120,0
DA:122,0
DA:123,0
DA:124,0
LF:4
LH:0
end_of_record
SF:/usr/include/c++/4.8.2/x86_64-redhat-linux/bits/gthr-default.h
FN:247,_ZL18__gthread_active_pv
FNDA:0,_ZL18__gthread_active_pv
FNF:1
FNH:0
DA:247,0
DA:251,0
LF:2
LH:0
end_of_record
